; Function Attrs: mustprogress uwtable
define noundef zeroext i1 @_ZNK32pxrInternal_v0_24__pxrReserved__9GfFrustum10IntersectsERKNS_8GfBBox3dE(ptr noundef nonnull align 8 dereferenceable(128) %0, ptr noundef nonnull align 8 dereferenceable(306) %1) local_unnamed_addr #0 align 2 {
  %3 = alloca %"class.pxrInternal_v0_24__pxrReserved__::GfPlane", align 8
  %4 = load double, ptr %1, align 8
  %5 = getelementptr inbounds nuw i8, ptr %1, i64 24
  %6 = load double, ptr %5, align 8
  %7 = fcmp ogt double %4, %6
  br i1 %7, label %_ZNK32pxrInternal_v0_24__pxrReserved__9GfRange3d7IsEmptyEv.exit.thread, label %8

8:                                                ; preds = %2
  %9 = getelementptr inbounds i8, ptr %1, i64 8
  %10 = load double, ptr %9, align 8
  %11 = getelementptr inbounds i8, ptr %1, i64 32
  %12 = load double, ptr %11, align 8
  %13 = fcmp ogt double %10, %12
  br i1 %13, label %_ZNK32pxrInternal_v0_24__pxrReserved__9GfRange3d7IsEmptyEv.exit.thread, label %_ZNK32pxrInternal_v0_24__pxrReserved__9GfRange3d7IsEmptyEv.exit

_ZNK32pxrInternal_v0_24__pxrReserved__9GfRange3d7IsEmptyEv.exit: ; preds = %8
  %14 = getelementptr inbounds i8, ptr %1, i64 16
  %15 = load double, ptr %14, align 8
  %16 = getelementptr inbounds i8, ptr %1, i64 40
  %17 = load double, ptr %16, align 8
  %18 = fcmp ogt double %15, %17
  br i1 %18, label %_ZNK32pxrInternal_v0_24__pxrReserved__9GfRange3d7IsEmptyEv.exit.thread, label %19

19:                                               ; preds = %_ZNK32pxrInternal_v0_24__pxrReserved__9GfRange3d7IsEmptyEv.exit
  tail call void @_ZNK32pxrInternal_v0_24__pxrReserved__9GfFrustum23_CalculateFrustumPlanesEv(ptr noundef nonnull align 8 dereferenceable(128) %0)
  %20 = getelementptr inbounds nuw i8, ptr %1, i64 176
  %21 = getelementptr inbounds nuw i8, ptr %0, i64 120
  %22 = load atomic i64, ptr %21 seq_cst, align 8
  %23 = inttoptr i64 %22 to ptr
  br label %24

24:                                               ; preds = %24, %19
  %.013.idx14 = phi i64 [ 0, %19 ], [ %.013.add, %24 ]
  %.013.ptr = getelementptr inbounds i8, ptr %23, i64 %.013.idx14
  call void @llvm.memcpy.p0.p0.i64(ptr noundef nonnull align 8 dereferenceable(32) %3, ptr noundef nonnull align 8 dereferenceable(32) %.013.ptr, i64 32, i1 false)
  %25 = call noundef nonnull align 8 dereferenceable(32) ptr @_ZN32pxrInternal_v0_24__pxrReserved__7GfPlane9TransformERKNS_10GfMatrix4dE(ptr noundef nonnull align 8 dereferenceable(32) %3, ptr noundef nonnull align 8 dereferenceable(128) %20)
  %26 = call noundef zeroext i1 @_ZNK32pxrInternal_v0_24__pxrReserved__7GfPlane27IntersectsPositiveHalfSpaceERKNS_9GfRange3dE(ptr noundef nonnull align 8 dereferenceable(32) %3, ptr noundef nonnull align 8 dereferenceable(48) %1)
  %.013.add = add nuw nsw i64 %.013.idx14, 32
  %.not = icmp ne i64 %.013.add, 192
  %or.cond.not = select i1 %26, i1 %.not, i1 false
  br i1 %or.cond.not, label %24, label %_ZNK32pxrInternal_v0_24__pxrReserved__9GfRange3d7IsEmptyEv.exit.thread

_ZNK32pxrInternal_v0_24__pxrReserved__9GfRange3d7IsEmptyEv.exit.thread: ; preds = %24, %2, %8, %_ZNK32pxrInternal_v0_24__pxrReserved__9GfRange3d7IsEmptyEv.exit
  %.0 = phi i1 [ false, %_ZNK32pxrInternal_v0_24__pxrReserved__9GfRange3d7IsEmptyEv.exit ], [ false, %8 ], [ false, %2 ], [ %26, %24 ]
  ret i1 %.0
}